target datalayout = "e-m:e-p270:32:32-p271:32:32-p272:64:64-i64:64-i128:128-f80:128-n8:16:32:64-S128"
target triple = "x86_64-pc-linux-gnu"

%"class.pxrInternal_v0_24__pxrReserved__::TfCallContext" = type <{ ptr, ptr, i64, ptr, i8, [7 x i8] }>

@.str = private unnamed_addr constant [125 x i8] c"generated/home/dtcxzyw/WorkSpace/Projects/compilers/llvm-opt-benchmark/bench/openusd/OpenUSD/pxr/base/tf/fastCompression.cpp\00", align 1
@__func__._ZN32pxrInternal_v0_24__pxrReserved__17TfFastCompression20DecompressFromBufferEPKcPcmm = private unnamed_addr constant [21 x i8] c"DecompressFromBuffer\00", align 1
@__PRETTY_FUNCTION__._ZN32pxrInternal_v0_24__pxrReserved__17TfFastCompression20DecompressFromBufferEPKcPcmm = private unnamed_addr constant [126 x i8] c"static size_t pxrInternal_v0_24__pxrReserved__::TfFastCompression::DecompressFromBuffer(const char *, char *, size_t, size_t)\00", align 1
@.str.2 = private unnamed_addr constant [64 x i8] c"Failed to decompress data, possibly corrupt? LZ4 error code: %d\00", align 1

; Function Attrs: mustprogress nounwind uwtable
define linkonce_odr noundef nonnull align 8 dereferenceable(8) ptr @_ZSt3minImERKT_S2_S2_(ptr noundef nonnull align 8 dereferenceable(8) %0, ptr noundef nonnull align 8 dereferenceable(8) %1) #0 comdat {
  %3 = alloca ptr, align 8
  %4 = alloca ptr, align 8
  %5 = alloca ptr, align 8
  store ptr %0, ptr %4, align 8
  store ptr %1, ptr %5, align 8
  %6 = load ptr, ptr %5, align 8
  %7 = load i64, ptr %6, align 8
  %8 = load ptr, ptr %4, align 8
  %9 = load i64, ptr %8, align 8
  %10 = icmp ult i64 %7, %9
  br i1 %10, label %11, label %13

11:                                               ; preds = %2
  %12 = load ptr, ptr %5, align 8
  store ptr %12, ptr %3, align 8
  br label %15

13:                                               ; preds = %2
  %14 = load ptr, ptr %4, align 8
  store ptr %14, ptr %3, align 8
  br label %15

15:                                               ; preds = %13, %11
  %16 = load ptr, ptr %3, align 8
  ret ptr %16
}

; Function Attrs: mustprogress nounwind uwtable
define linkonce_odr void @_ZN32pxrInternal_v0_24__pxrReserved__13TfCallContextC2EPKcS2_mS2_(ptr noundef nonnull align 8 dereferenceable(33) %0, ptr noundef %1, ptr noundef %2, i64 noundef %3, ptr noundef %4) unnamed_addr #0 comdat align 2 {
  %6 = alloca ptr, align 8
  %7 = alloca ptr, align 8
  %8 = alloca ptr, align 8
  %9 = alloca i64, align 8
  %10 = alloca ptr, align 8
  store ptr %0, ptr %6, align 8
  store ptr %1, ptr %7, align 8
  store ptr %2, ptr %8, align 8
  store i64 %3, ptr %9, align 8
  store ptr %4, ptr %10, align 8
  %11 = load ptr, ptr %6, align 8
  %12 = getelementptr inbounds nuw %"class.pxrInternal_v0_24__pxrReserved__::TfCallContext", ptr %11, i32 0, i32 0
  %13 = load ptr, ptr %7, align 8
  store ptr %13, ptr %12, align 8
  %14 = getelementptr inbounds nuw %"class.pxrInternal_v0_24__pxrReserved__::TfCallContext", ptr %11, i32 0, i32 1
  %15 = load ptr, ptr %8, align 8
  store ptr %15, ptr %14, align 8
  %16 = getelementptr inbounds nuw %"class.pxrInternal_v0_24__pxrReserved__::TfCallContext", ptr %11, i32 0, i32 2
  %17 = load i64, ptr %9, align 8
  store i64 %17, ptr %16, align 8
  %18 = getelementptr inbounds nuw %"class.pxrInternal_v0_24__pxrReserved__::TfCallContext", ptr %11, i32 0, i32 3
  %19 = load ptr, ptr %10, align 8
  store ptr %19, ptr %18, align 8
  %20 = getelementptr inbounds nuw %"class.pxrInternal_v0_24__pxrReserved__::TfCallContext", ptr %11, i32 0, i32 4
  store i8 0, ptr %20, align 8
  ret void
}

; Function Attrs: mustprogress uwtable
define noundef i64 @_ZN32pxrInternal_v0_24__pxrReserved__17TfFastCompression20DecompressFromBufferEPKcPcmm(ptr noundef %0, ptr noundef %1, i64 noundef %2, i64 noundef %3) #1 align 2 {
  %5 = alloca i64, align 8
  %6 = alloca ptr, align 8
  %7 = alloca ptr, align 8
  %8 = alloca i64, align 8
  %9 = alloca i64, align 8
  %10 = alloca i32, align 4
  %11 = alloca i32, align 4
  %12 = alloca %"class.pxrInternal_v0_24__pxrReserved__::TfCallContext", align 8
  %13 = alloca i64, align 8
  %14 = alloca i32, align 4
  %15 = alloca i32, align 4
  %16 = alloca i32, align 4
  %17 = alloca i64, align 8
  %18 = alloca %"class.pxrInternal_v0_24__pxrReserved__::TfCallContext", align 8
  store ptr %0, ptr %6, align 8
  store ptr %1, ptr %7, align 8
  store i64 %2, ptr %8, align 8
  store i64 %3, ptr %9, align 8
  %19 = load ptr, ptr %6, align 8
  %20 = getelementptr inbounds i8, ptr %19, i32 1
  store ptr %20, ptr %6, align 8
  %21 = load i8, ptr %19, align 1
  %22 = sext i8 %21 to i32
  store i32 %22, ptr %10, align 4
  %23 = load i32, ptr %10, align 4
  %24 = icmp eq i32 %23, 0
  br i1 %24, label %25, label %41

25:                                               ; preds = %4
  %26 = load ptr, ptr %6, align 8
  %27 = load ptr, ptr %7, align 8
  %28 = load i64, ptr %8, align 8
  %29 = sub i64 %28, 1
  %30 = trunc i64 %29 to i32
  %31 = load i64, ptr %9, align 8
  %32 = trunc i64 %31 to i32
  %33 = call noundef i32 @_ZN32pxrInternal_v0_24__pxrReserved__7pxr_lz419LZ4_decompress_safeEPKcPcii(ptr noundef %26, ptr noundef %27, i32 noundef %30, i32 noundef %32)
  store i32 %33, ptr %11, align 4
  %34 = load i32, ptr %11, align 4
  %35 = icmp slt i32 %34, 0
  br i1 %35, label %36, label %38

36:                                               ; preds = %25
  call void @_ZN32pxrInternal_v0_24__pxrReserved__13TfCallContextC2EPKcS2_mS2_(ptr noundef nonnull align 8 dereferenceable(33) %12, ptr noundef @.str, ptr noundef @__func__._ZN32pxrInternal_v0_24__pxrReserved__17TfFastCompression20DecompressFromBufferEPKcPcmm, i64 noundef 103, ptr noundef @__PRETTY_FUNCTION__._ZN32pxrInternal_v0_24__pxrReserved__17TfFastCompression20DecompressFromBufferEPKcPcmm)
  %37 = load i32, ptr %11, align 4
  call void (ptr, i32, ptr, ...) @_ZN32pxrInternal_v0_24__pxrReserved__18Tf_PostErrorHelperERKNS_13TfCallContextENS_16TfDiagnosticTypeEPKcz(ptr noundef nonnull align 8 dereferenceable(33) %12, i32 noundef 3, ptr noundef @.str.2, i32 noundef %37)
  store i64 0, ptr %5, align 8
  br label %83

38:                                               ; preds = %25
  %39 = load i32, ptr %11, align 4
  %40 = sext i32 %39 to i64
  store i64 %40, ptr %5, align 8
  br label %83

41:                                               ; preds = %4
  store i64 0, ptr %13, align 8
  store i32 0, ptr %14, align 4
  br label %42

42:                                               ; preds = %78, %41
  %43 = load i32, ptr %14, align 4
  %44 = load i32, ptr %10, align 4
  %45 = icmp ne i32 %43, %44
  br i1 %45, label %46, label %81

46:                                               ; preds = %42
  store i32 0, ptr %15, align 4
  %47 = load ptr, ptr %6, align 8
  call void @llvm.memcpy.p0.p0.i64(ptr align 4 %15, ptr align 1 %47, i64 4, i1 false)
  %48 = load ptr, ptr %6, align 8
  %49 = getelementptr inbounds i8, ptr %48, i64 4
  store ptr %49, ptr %6, align 8
  %50 = load ptr, ptr %6, align 8
  %51 = load ptr, ptr %7, align 8
  %52 = load i32, ptr %15, align 4
  store i64 2113929216, ptr %17, align 8
  %53 = call noundef nonnull align 8 dereferenceable(8) ptr @_ZSt3minImERKT_S2_S2_(ptr noundef nonnull align 8 dereferenceable(8) %17, ptr noundef nonnull align 8 dereferenceable(8) %9)
  %54 = load i64, ptr %53, align 8
  %55 = trunc i64 %54 to i32
  %56 = call noundef i32 @_ZN32pxrInternal_v0_24__pxrReserved__7pxr_lz419LZ4_decompress_safeEPKcPcii(ptr noundef %50, ptr noundef %51, i32 noundef %52, i32 noundef %55)
  store i32 %56, ptr %16, align 4
  %57 = load i32, ptr %16, align 4
  %58 = icmp slt i32 %57, 0
  br i1 %58, label %59, label %61

59:                                               ; preds = %46
  call void @_ZN32pxrInternal_v0_24__pxrReserved__13TfCallContextC2EPKcS2_mS2_(ptr noundef nonnull align 8 dereferenceable(33) %18, ptr noundef @.str, ptr noundef @__func__._ZN32pxrInternal_v0_24__pxrReserved__17TfFastCompression20DecompressFromBufferEPKcPcmm, i64 noundef 119, ptr noundef @__PRETTY_FUNCTION__._ZN32pxrInternal_v0_24__pxrReserved__17TfFastCompression20DecompressFromBufferEPKcPcmm)
  %60 = load i32, ptr %16, align 4
  call void (ptr, i32, ptr, ...) @_ZN32pxrInternal_v0_24__pxrReserved__18Tf_PostErrorHelperERKNS_13TfCallContextENS_16TfDiagnosticTypeEPKcz(ptr noundef nonnull align 8 dereferenceable(33) %18, i32 noundef 3, ptr noundef @.str.2, i32 noundef %60)
  store i64 0, ptr %5, align 8
  br label %83

61:                                               ; preds = %46
  %62 = load i32, ptr %15, align 4
  %63 = load ptr, ptr %6, align 8
  %64 = sext i32 %62 to i64
  %65 = getelementptr inbounds i8, ptr %63, i64 %64
  store ptr %65, ptr %6, align 8
  %66 = load i32, ptr %16, align 4
  %67 = load ptr, ptr %7, align 8
  %68 = sext i32 %66 to i64
  %69 = getelementptr inbounds i8, ptr %67, i64 %68
  store ptr %69, ptr %7, align 8
  %70 = load i32, ptr %16, align 4
  %71 = sext i32 %70 to i64
  %72 = load i64, ptr %9, align 8
  %73 = sub i64 %72, %71
  store i64 %73, ptr %9, align 8
  %74 = load i32, ptr %16, align 4
  %75 = sext i32 %74 to i64
  %76 = load i64, ptr %13, align 8
  %77 = add i64 %76, %75
  store i64 %77, ptr %13, align 8
  br label %78

78:                                               ; preds = %61
  %79 = load i32, ptr %14, align 4
  %80 = add nsw i32 %79, 1
  store i32 %80, ptr %14, align 4
  br label %42, !llvm.loop !6

81:                                               ; preds = %42
  %82 = load i64, ptr %13, align 8
  store i64 %82, ptr %5, align 8
  br label %83

83:                                               ; preds = %81, %59, %38, %36
  %84 = load i64, ptr %5, align 8
  ret i64 %84
}