; Function Attrs: mustprogress uwtable
define noundef i64 @_ZN32pxrInternal_v0_24__pxrReserved__17TfFastCompression20DecompressFromBufferEPKcPcmm(ptr noundef %0, ptr noundef %1, i64 noundef %2, i64 noundef %3) local_unnamed_addr #1 align 2 {
  %5 = alloca %"class.pxrInternal_v0_24__pxrReserved__::TfCallContext", align 8
  %6 = alloca %"class.pxrInternal_v0_24__pxrReserved__::TfCallContext", align 8
  %7 = getelementptr inbounds i8, ptr %0, i64 1
  %8 = load i8, ptr %0, align 1
  %9 = sext i8 %8 to i32
  %10 = icmp eq i8 %8, 0
  br i1 %10, label %11, label %.preheader

11:                                               ; preds = %4
  %12 = trunc i64 %2 to i32
  %13 = add i32 %12, -1
  %14 = trunc i64 %3 to i32
  %15 = tail call noundef i32 @_ZN32pxrInternal_v0_24__pxrReserved__7pxr_lz419LZ4_decompress_safeEPKcPcii(ptr noundef nonnull %7, ptr noundef %1, i32 noundef %13, i32 noundef %14)
  %16 = icmp slt i32 %15, 0
  br i1 %16, label %17, label %22

17:                                               ; preds = %11
  store ptr @.str, ptr %5, align 8
  %18 = getelementptr inbounds nuw i8, ptr %5, i64 8
  store ptr @__func__._ZN32pxrInternal_v0_24__pxrReserved__17TfFastCompression20DecompressFromBufferEPKcPcmm, ptr %18, align 8
  %19 = getelementptr inbounds nuw i8, ptr %5, i64 16
  store i64 103, ptr %19, align 8
  %20 = getelementptr inbounds nuw i8, ptr %5, i64 24
  store ptr @__PRETTY_FUNCTION__._ZN32pxrInternal_v0_24__pxrReserved__17TfFastCompression20DecompressFromBufferEPKcPcmm, ptr %20, align 8
  %21 = getelementptr inbounds nuw i8, ptr %5, i64 32
  store i8 0, ptr %21, align 8
  call void (ptr, i32, ptr, ...) @_ZN32pxrInternal_v0_24__pxrReserved__18Tf_PostErrorHelperERKNS_13TfCallContextENS_16TfDiagnosticTypeEPKcz(ptr noundef nonnull align 8 dereferenceable(33) %5, i32 noundef 3, ptr noundef nonnull @.str.2, i32 noundef %15)
  br label %.loopexit

22:                                               ; preds = %11
  %23 = zext nneg i32 %15 to i64
  br label %.loopexit

.preheader:                                       ; preds = %4, %33
  %.02644 = phi i32 [ %40, %33 ], [ 0, %4 ]
  %.02743 = phi i64 [ %39, %33 ], [ 0, %4 ]
  %.02842 = phi ptr [ %35, %33 ], [ %7, %4 ]
  %.02941 = phi ptr [ %37, %33 ], [ %1, %4 ]
  %.03840 = phi i64 [ %38, %33 ], [ %3, %4 ]
  %.0.copyload = load i32, ptr %.02842, align 1
  %24 = getelementptr inbounds i8, ptr %.02842, i64 4
  %.sroa.speculated = tail call i64 @llvm.umin.i64(i64 %.03840, i64 2113929216)
  %25 = trunc nuw nsw i64 %.sroa.speculated to i32
  %26 = tail call noundef i32 @_ZN32pxrInternal_v0_24__pxrReserved__7pxr_lz419LZ4_decompress_safeEPKcPcii(ptr noundef nonnull %24, ptr noundef %.02941, i32 noundef %.0.copyload, i32 noundef %25)
  %27 = icmp slt i32 %26, 0
  br i1 %27, label %28, label %33

28:                                               ; preds = %.preheader
  store ptr @.str, ptr %6, align 8
  %29 = getelementptr inbounds nuw i8, ptr %6, i64 8
  store ptr @__func__._ZN32pxrInternal_v0_24__pxrReserved__17TfFastCompression20DecompressFromBufferEPKcPcmm, ptr %29, align 8
  %30 = getelementptr inbounds nuw i8, ptr %6, i64 16
  store i64 119, ptr %30, align 8
  %31 = getelementptr inbounds nuw i8, ptr %6, i64 24
  store ptr @__PRETTY_FUNCTION__._ZN32pxrInternal_v0_24__pxrReserved__17TfFastCompression20DecompressFromBufferEPKcPcmm, ptr %31, align 8
  %32 = getelementptr inbounds nuw i8, ptr %6, i64 32
  store i8 0, ptr %32, align 8
  call void (ptr, i32, ptr, ...) @_ZN32pxrInternal_v0_24__pxrReserved__18Tf_PostErrorHelperERKNS_13TfCallContextENS_16TfDiagnosticTypeEPKcz(ptr noundef nonnull align 8 dereferenceable(33) %6, i32 noundef 3, ptr noundef nonnull @.str.2, i32 noundef %26)
  br label %.loopexit

33:                                               ; preds = %.preheader
  %34 = sext i32 %.0.copyload to i64
  %35 = getelementptr inbounds i8, ptr %24, i64 %34
  %36 = zext nneg i32 %26 to i64
  %37 = getelementptr inbounds i8, ptr %.02941, i64 %36
  %38 = sub i64 %.03840, %36
  %39 = add i64 %.02743, %36
  %40 = add nuw nsw i32 %.02644, 1
  %.not = icmp eq i32 %40, %9
  br i1 %.not, label %.loopexit, label %.preheader, !llvm.loop !6

.loopexit:                                        ; preds = %33, %28, %22, %17
  %.0 = phi i64 [ 0, %17 ], [ %23, %22 ], [ 0, %28 ], [ %39, %33 ]
  ret i64 %.0
}